; Function Attrs: mustprogress nounwind uwtable
define internal void @_ZN4node12_GLOBAL__N_111ZlibContextD2Ev(ptr noundef nonnull align 8 dereferenceable(224) %this) unnamed_addr #3 align 2 {
entry:
  %dictionary_ = getelementptr inbounds i8, ptr %this, i64 88
  %0 = load ptr, ptr %dictionary_, align 8
  %tobool.not.i.i.i = icmp eq ptr %0, null
  br i1 %tobool.not.i.i.i, label %_ZNSt6vectorIhSaIhEED2Ev.exit, label %if.then.i.i.i

if.then.i.i.i:                                    ; preds = %entry
  tail call void @_ZdlPv(ptr noundef nonnull %0) #25
  br label %_ZNSt6vectorIhSaIhEED2Ev.exit

_ZNSt6vectorIhSaIhEED2Ev.exit:                    ; preds = %entry, %if.then.i.i.i
  %mutex_ = getelementptr inbounds i8, ptr %this, i64 8
  tail call void @uv_mutex_destroy(ptr noundef nonnull %mutex_) #22
  ret void
}